; Function Attrs: nofree norecurse nosync nounwind memory(readwrite, inaccessiblemem: none) uwtable
define dso_local void @list_deduplicate_oid(ptr noundef captures(address_is_null) %0) local_unnamed_addr #5 {
  %.not.i = icmp eq ptr %0, null
  br i1 %.not.i, label %list_length.exit.thread, label %list_length.exit

list_length.exit:                                 ; preds = %1
  %2 = getelementptr inbounds nuw i8, ptr %0, i64 4
  %3 = load i32, ptr %2, align 4
  %4 = icmp sgt i32 %3, 1
  br i1 %4, label %5, label %list_length.exit.thread

5:                                                ; preds = %list_length.exit
  %6 = getelementptr inbounds nuw i8, ptr %0, i64 16
  %7 = load ptr, ptr %6, align 8
  %wide.trip.count = zext nneg i32 %3 to i64
  br label %10

8:                                                ; preds = %20
  %9 = add i32 %.1, 1
  store i32 %9, ptr %2, align 4
  br label %list_length.exit.thread

10:                                               ; preds = %5, %20
  %indvars.iv = phi i64 [ 1, %5 ], [ %indvars.iv.next, %20 ]
  %.01518 = phi i32 [ 0, %5 ], [ %.1, %20 ]
  %11 = sext i32 %.01518 to i64
  %12 = getelementptr inbounds %union.ListCell, ptr %7, i64 %11
  %13 = load i32, ptr %12, align 8
  %14 = getelementptr inbounds nuw %union.ListCell, ptr %7, i64 %indvars.iv
  %15 = load i32, ptr %14, align 8
  %.not = icmp eq i32 %13, %15
  br i1 %.not, label %20, label %16

16:                                               ; preds = %10
  %17 = add i32 %.01518, 1
  %18 = sext i32 %17 to i64
  %19 = getelementptr inbounds %union.ListCell, ptr %7, i64 %18
  store i32 %15, ptr %19, align 8
  br label %20

20:                                               ; preds = %10, %16
  %.1 = phi i32 [ %17, %16 ], [ %.01518, %10 ]
  %indvars.iv.next = add nuw nsw i64 %indvars.iv, 1
  %exitcond.not = icmp eq i64 %indvars.iv.next, %wide.trip.count
  br i1 %exitcond.not, label %8, label %10, !llvm.loop !8

list_length.exit.thread:                          ; preds = %1, %8, %list_length.exit
  ret void
}